target datalayout = "e-m:e-p270:32:32-p271:32:32-p272:64:64-i64:64-i128:128-f80:128-n8:16:32:64-S128"
target triple = "x86_64-pc-linux-gnu"

%"class.sat::clause_use_list" = type { %class.ptr_vector, i32, i32 }
%class.ptr_vector = type { %class.vector }
%class.vector = type { ptr }
%"class.sat::clause" = type { i32, i32, i32, %class.approx_set_tpl, i32, [0 x %"class.sat::literal"] }
%class.approx_set_tpl = type { i32 }
%"class.sat::literal" = type { i32 }

@.str = private unnamed_addr constant [115 x i8] c"generated/home/dtcxzyw/WorkSpace/Projects/compilers/llvm-opt-benchmark/bench/z3/z3/src/sat/sat_clause_use_list.cpp\00", align 1
@.str.1 = private unnamed_addr constant [32 x i8] c"Failed to verify: sz == m_size\0A\00", align 1
@.str.2 = private unnamed_addr constant [48 x i8] c"Failed to verify: redundant == m_num_redundant\0A\00", align 1

; Function Attrs: mustprogress nounwind uwtable
define linkonce_odr hidden noundef i32 @_ZNK6vectorIPN3sat6clauseELb0EjE4sizeEv(ptr noundef nonnull align 8 dereferenceable(8) %0) #6 comdat align 2 {
  %2 = alloca i32, align 4
  %3 = alloca ptr, align 8
  store ptr %0, ptr %3, align 8, !tbaa !22
  %4 = load ptr, ptr %3, align 8
  %5 = getelementptr inbounds nuw %class.vector, ptr %4, i32 0, i32 0
  %6 = load ptr, ptr %5, align 8, !tbaa !24
  %7 = icmp eq ptr %6, null
  br i1 %7, label %8, label %9

8:                                                ; preds = %1
  store i32 0, ptr %2, align 4
  br label %14

9:                                                ; preds = %1
  %10 = getelementptr inbounds nuw %class.vector, ptr %4, i32 0, i32 0
  %11 = load ptr, ptr %10, align 8, !tbaa !24
  %12 = getelementptr inbounds i32, ptr %11, i64 -1
  %13 = load i32, ptr %12, align 4, !tbaa !8
  store i32 %13, ptr %2, align 4
  br label %14

14:                                               ; preds = %9, %8
  %15 = load i32, ptr %2, align 4
  ret i32 %15
}

; Function Attrs: mustprogress nounwind uwtable
define linkonce_odr hidden noundef zeroext i1 @_ZNK3sat6clause10is_learnedEv(ptr noundef nonnull align 4 dereferenceable(20) %0) #6 comdat align 2 {
  %2 = alloca ptr, align 8
  store ptr %0, ptr %2, align 8, !tbaa !15
  %3 = load ptr, ptr %2, align 8
  %4 = getelementptr inbounds nuw %"class.sat::clause", ptr %3, i32 0, i32 4
  %5 = load i32, ptr %4, align 4
  %6 = lshr i32 %5, 2
  %7 = and i32 %6, 1
  %8 = icmp ne i32 %7, 0
  ret i1 %8
}

; Function Attrs: mustprogress nounwind uwtable
define linkonce_odr hidden noundef zeroext i1 @_ZNK3sat6clause11was_removedEv(ptr noundef nonnull align 4 dereferenceable(20) %0) #6 comdat align 2 {
  %2 = alloca ptr, align 8
  store ptr %0, ptr %2, align 8, !tbaa !15
  %3 = load ptr, ptr %2, align 8
  %4 = getelementptr inbounds nuw %"class.sat::clause", ptr %3, i32 0, i32 4
  %5 = load i32, ptr %4, align 4
  %6 = lshr i32 %5, 1
  %7 = and i32 %6, 1
  %8 = icmp ne i32 %7, 0
  ret i1 %8
}

; Function Attrs: mustprogress uwtable
define linkonce_odr hidden noundef ptr @_ZNK6vectorIPN3sat6clauseELb0EjE3endEv(ptr noundef nonnull align 8 dereferenceable(8) %0) #4 comdat align 2 {
  %2 = alloca ptr, align 8
  store ptr %0, ptr %2, align 8, !tbaa !22
  %3 = load ptr, ptr %2, align 8
  %4 = getelementptr inbounds nuw %class.vector, ptr %3, i32 0, i32 0
  %5 = load ptr, ptr %4, align 8, !tbaa !24
  %6 = call noundef i32 @_ZNK6vectorIPN3sat6clauseELb0EjE4sizeEv(ptr noundef nonnull align 8 dereferenceable(8) %3)
  %7 = zext i32 %6 to i64
  %8 = getelementptr inbounds nuw ptr, ptr %5, i64 %7
  ret ptr %8
}

; Function Attrs: mustprogress nounwind uwtable
define linkonce_odr hidden noundef ptr @_ZNK6vectorIPN3sat6clauseELb0EjE5beginEv(ptr noundef nonnull align 8 dereferenceable(8) %0) #6 comdat align 2 {
  %2 = alloca ptr, align 8
  store ptr %0, ptr %2, align 8, !tbaa !22
  %3 = load ptr, ptr %2, align 8
  %4 = getelementptr inbounds nuw %class.vector, ptr %3, i32 0, i32 0
  %5 = load ptr, ptr %4, align 8, !tbaa !24
  ret ptr %5
}

; Function Attrs: mustprogress uwtable
define hidden noundef zeroext i1 @_ZNK3sat15clause_use_list15check_invariantEv(ptr noundef nonnull align 8 dereferenceable(16) %0) #4 align 2 {
  %2 = alloca ptr, align 8
  %3 = alloca i32, align 4
  %4 = alloca ptr, align 8
  %5 = alloca ptr, align 8
  %6 = alloca ptr, align 8
  %7 = alloca ptr, align 8
  %8 = alloca i32, align 4
  %9 = alloca ptr, align 8
  %10 = alloca ptr, align 8
  %11 = alloca ptr, align 8
  %12 = alloca ptr, align 8
  store ptr %0, ptr %2, align 8, !tbaa !3
  %13 = load ptr, ptr %2, align 8
  call void @llvm.lifetime.start.p0(i64 4, ptr %3) #3
  store i32 0, ptr %3, align 4, !tbaa !8
  call void @llvm.lifetime.start.p0(i64 8, ptr %4) #3
  %14 = getelementptr inbounds nuw %"class.sat::clause_use_list", ptr %13, i32 0, i32 0
  store ptr %14, ptr %4, align 8, !tbaa !10
  call void @llvm.lifetime.start.p0(i64 8, ptr %5) #3
  %15 = load ptr, ptr %4, align 8, !tbaa !10
  %16 = call noundef ptr @_ZNK6vectorIPN3sat6clauseELb0EjE5beginEv(ptr noundef nonnull align 8 dereferenceable(8) %15)
  store ptr %16, ptr %5, align 8, !tbaa !12
  call void @llvm.lifetime.start.p0(i64 8, ptr %6) #3
  %17 = load ptr, ptr %4, align 8, !tbaa !10
  %18 = call noundef ptr @_ZNK6vectorIPN3sat6clauseELb0EjE3endEv(ptr noundef nonnull align 8 dereferenceable(8) %17)
  store ptr %18, ptr %6, align 8, !tbaa !12
  br label %19

19:                                               ; preds = %33, %1
  %20 = load ptr, ptr %5, align 8, !tbaa !12
  %21 = load ptr, ptr %6, align 8, !tbaa !12
  %22 = icmp ne ptr %20, %21
  br i1 %22, label %24, label %23

23:                                               ; preds = %19
  call void @llvm.lifetime.end.p0(i64 8, ptr %6) #3
  call void @llvm.lifetime.end.p0(i64 8, ptr %5) #3
  call void @llvm.lifetime.end.p0(i64 8, ptr %4) #3
  br label %36

24:                                               ; preds = %19
  call void @llvm.lifetime.start.p0(i64 8, ptr %7) #3
  %25 = load ptr, ptr %5, align 8, !tbaa !12
  %26 = load ptr, ptr %25, align 8, !tbaa !15
  store ptr %26, ptr %7, align 8, !tbaa !15
  %27 = load ptr, ptr %7, align 8, !tbaa !15
  %28 = call noundef zeroext i1 @_ZNK3sat6clause11was_removedEv(ptr noundef nonnull align 4 dereferenceable(20) %27)
  br i1 %28, label %32, label %29

29:                                               ; preds = %24
  %30 = load i32, ptr %3, align 4, !tbaa !8
  %31 = add i32 %30, 1
  store i32 %31, ptr %3, align 4, !tbaa !8
  br label %32

32:                                               ; preds = %29, %24
  call void @llvm.lifetime.end.p0(i64 8, ptr %7) #3
  br label %33

33:                                               ; preds = %32
  %34 = load ptr, ptr %5, align 8, !tbaa !12
  %35 = getelementptr inbounds nuw ptr, ptr %34, i32 1
  store ptr %35, ptr %5, align 8, !tbaa !12
  br label %19

36:                                               ; preds = %23
  %37 = load i32, ptr %3, align 4, !tbaa !8
  %38 = getelementptr inbounds nuw %"class.sat::clause_use_list", ptr %13, i32 0, i32 1
  %39 = load i32, ptr %38, align 8, !tbaa !17
  %40 = icmp eq i32 %37, %39
  br i1 %40, label %42, label %41

41:                                               ; preds = %36
  call void @_Z26notify_assertion_violationPKciS0_(ptr noundef @.str, i32 noundef 29, ptr noundef @.str.1)
  call void @_Z18invoke_exit_actionj(i32 noundef 114)
  br label %42

42:                                               ; preds = %41, %36
  call void @llvm.lifetime.start.p0(i64 4, ptr %8) #3
  store i32 0, ptr %8, align 4, !tbaa !8
  call void @llvm.lifetime.start.p0(i64 8, ptr %9) #3
  %43 = getelementptr inbounds nuw %"class.sat::clause_use_list", ptr %13, i32 0, i32 0
  store ptr %43, ptr %9, align 8, !tbaa !10
  call void @llvm.lifetime.start.p0(i64 8, ptr %10) #3
  %44 = load ptr, ptr %9, align 8, !tbaa !10
  %45 = call noundef ptr @_ZNK6vectorIPN3sat6clauseELb0EjE5beginEv(ptr noundef nonnull align 8 dereferenceable(8) %44)
  store ptr %45, ptr %10, align 8, !tbaa !12
  call void @llvm.lifetime.start.p0(i64 8, ptr %11) #3
  %46 = load ptr, ptr %9, align 8, !tbaa !10
  %47 = call noundef ptr @_ZNK6vectorIPN3sat6clauseELb0EjE3endEv(ptr noundef nonnull align 8 dereferenceable(8) %46)
  store ptr %47, ptr %11, align 8, !tbaa !12
  br label %48

48:                                               ; preds = %62, %42
  %49 = load ptr, ptr %10, align 8, !tbaa !12
  %50 = load ptr, ptr %11, align 8, !tbaa !12
  %51 = icmp ne ptr %49, %50
  br i1 %51, label %53, label %52

52:                                               ; preds = %48
  call void @llvm.lifetime.end.p0(i64 8, ptr %11) #3
  call void @llvm.lifetime.end.p0(i64 8, ptr %10) #3
  call void @llvm.lifetime.end.p0(i64 8, ptr %9) #3
  br label %65

53:                                               ; preds = %48
  call void @llvm.lifetime.start.p0(i64 8, ptr %12) #3
  %54 = load ptr, ptr %10, align 8, !tbaa !12
  %55 = load ptr, ptr %54, align 8, !tbaa !15
  store ptr %55, ptr %12, align 8, !tbaa !15
  %56 = load ptr, ptr %12, align 8, !tbaa !15
  %57 = call noundef zeroext i1 @_ZNK3sat6clause10is_learnedEv(ptr noundef nonnull align 4 dereferenceable(20) %56)
  br i1 %57, label %58, label %61

58:                                               ; preds = %53
  %59 = load i32, ptr %8, align 4, !tbaa !8
  %60 = add i32 %59, 1
  store i32 %60, ptr %8, align 4, !tbaa !8
  br label %61

61:                                               ; preds = %58, %53
  call void @llvm.lifetime.end.p0(i64 8, ptr %12) #3
  br label %62

62:                                               ; preds = %61
  %63 = load ptr, ptr %10, align 8, !tbaa !12
  %64 = getelementptr inbounds nuw ptr, ptr %63, i32 1
  store ptr %64, ptr %10, align 8, !tbaa !12
  br label %48

65:                                               ; preds = %52
  %66 = load i32, ptr %8, align 4, !tbaa !8
  %67 = getelementptr inbounds nuw %"class.sat::clause_use_list", ptr %13, i32 0, i32 2
  %68 = load i32, ptr %67, align 4, !tbaa !21
  %69 = icmp eq i32 %66, %68
  br i1 %69, label %71, label %70

70:                                               ; preds = %65
  call void @_Z26notify_assertion_violationPKciS0_(ptr noundef @.str, i32 noundef 34, ptr noundef @.str.2)
  call void @_Z18invoke_exit_actionj(i32 noundef 114)
  br label %71

71:                                               ; preds = %70, %65
  call void @llvm.lifetime.end.p0(i64 4, ptr %8) #3
  call void @llvm.lifetime.end.p0(i64 4, ptr %3) #3
  ret i1 true
}